target datalayout = "e-m:e-p270:32:32-p271:32:32-p272:64:64-i64:64-i128:128-f80:128-n8:16:32:64-S128"
target triple = "x86_64-pc-linux-gnu"

%"class.clang::MultiplexASTDeserializationListener" = type { %"class.clang::ASTDeserializationListener", %"class.std::vector" }
%"class.clang::ASTDeserializationListener" = type { ptr }
%"class.std::vector" = type { %"struct.std::_Vector_base" }
%"struct.std::_Vector_base" = type { %"struct.std::_Vector_base<clang::ASTDeserializationListener *, std::allocator<clang::ASTDeserializationListener *>>::_Vector_impl" }
%"struct.std::_Vector_base<clang::ASTDeserializationListener *, std::allocator<clang::ASTDeserializationListener *>>::_Vector_impl" = type { %"struct.std::_Vector_base<clang::ASTDeserializationListener *, std::allocator<clang::ASTDeserializationListener *>>::_Vector_impl_data" }
%"struct.std::_Vector_base<clang::ASTDeserializationListener *, std::allocator<clang::ASTDeserializationListener *>>::_Vector_impl_data" = type { ptr, ptr, ptr }

; Function Attrs: mustprogress nounwind uwtable
define linkonce_odr hidden noundef nonnull align 8 dereferenceable(8) ptr @_ZNSt6vectorIPN5clang26ASTDeserializationListenerESaIS2_EEixEm(ptr noundef nonnull align 8 dereferenceable(24) %0, i64 noundef %1) #0 comdat align 2 {
  %3 = alloca ptr, align 8
  %4 = alloca i64, align 8
  store ptr %0, ptr %3, align 8
  store i64 %1, ptr %4, align 8
  %5 = load ptr, ptr %3, align 8
  %6 = getelementptr inbounds nuw %"struct.std::_Vector_base", ptr %5, i32 0, i32 0
  %7 = getelementptr inbounds nuw %"struct.std::_Vector_base<clang::ASTDeserializationListener *, std::allocator<clang::ASTDeserializationListener *>>::_Vector_impl_data", ptr %6, i32 0, i32 0
  %8 = load ptr, ptr %7, align 8
  %9 = load i64, ptr %4, align 8
  %10 = getelementptr inbounds ptr, ptr %8, i64 %9
  ret ptr %10
}

; Function Attrs: mustprogress nounwind uwtable
define linkonce_odr hidden noundef i64 @_ZNKSt6vectorIPN5clang26ASTDeserializationListenerESaIS2_EE4sizeEv(ptr noundef nonnull align 8 dereferenceable(24) %0) #0 comdat align 2 {
  %2 = alloca ptr, align 8
  store ptr %0, ptr %2, align 8
  %3 = load ptr, ptr %2, align 8
  %4 = getelementptr inbounds nuw %"struct.std::_Vector_base", ptr %3, i32 0, i32 0
  %5 = getelementptr inbounds nuw %"struct.std::_Vector_base<clang::ASTDeserializationListener *, std::allocator<clang::ASTDeserializationListener *>>::_Vector_impl_data", ptr %4, i32 0, i32 1
  %6 = load ptr, ptr %5, align 8
  %7 = getelementptr inbounds nuw %"struct.std::_Vector_base", ptr %3, i32 0, i32 0
  %8 = getelementptr inbounds nuw %"struct.std::_Vector_base<clang::ASTDeserializationListener *, std::allocator<clang::ASTDeserializationListener *>>::_Vector_impl_data", ptr %7, i32 0, i32 0
  %9 = load ptr, ptr %8, align 8
  %10 = ptrtoint ptr %6 to i64
  %11 = ptrtoint ptr %9 to i64
  %12 = sub i64 %10, %11
  %13 = sdiv exact i64 %12, 8
  ret i64 %13
}

; Function Attrs: mustprogress nounwind uwtable
define dso_local void @_ZN5clang35MultiplexASTDeserializationListener19MacroDefinitionReadEjPNS_21MacroDefinitionRecordE(ptr noundef nonnull align 8 dereferenceable(32) %0, i32 noundef %1, ptr noundef %2) unnamed_addr #0 align 2 {
  %4 = alloca ptr, align 8
  %5 = alloca i32, align 4
  %6 = alloca ptr, align 8
  %7 = alloca i64, align 8
  %8 = alloca i64, align 8
  store ptr %0, ptr %4, align 8
  store i32 %1, ptr %5, align 4
  store ptr %2, ptr %6, align 8
  %9 = load ptr, ptr %4, align 8
  store i64 0, ptr %7, align 8
  %10 = getelementptr inbounds nuw %"class.clang::MultiplexASTDeserializationListener", ptr %9, i32 0, i32 1
  %11 = call noundef i64 @_ZNKSt6vectorIPN5clang26ASTDeserializationListenerESaIS2_EE4sizeEv(ptr noundef nonnull align 8 dereferenceable(24) %10) #8
  store i64 %11, ptr %8, align 8
  br label %12

12:                                               ; preds = %26, %3
  %13 = load i64, ptr %7, align 8
  %14 = load i64, ptr %8, align 8
  %15 = icmp ne i64 %13, %14
  br i1 %15, label %16, label %29

16:                                               ; preds = %12
  %17 = getelementptr inbounds nuw %"class.clang::MultiplexASTDeserializationListener", ptr %9, i32 0, i32 1
  %18 = load i64, ptr %7, align 8
  %19 = call noundef nonnull align 8 dereferenceable(8) ptr @_ZNSt6vectorIPN5clang26ASTDeserializationListenerESaIS2_EEixEm(ptr noundef nonnull align 8 dereferenceable(24) %17, i64 noundef %18) #8
  %20 = load ptr, ptr %19, align 8
  %21 = load i32, ptr %5, align 4
  %22 = load ptr, ptr %6, align 8
  %23 = load ptr, ptr %20, align 8
  %24 = getelementptr inbounds ptr, ptr %23, i64 9
  %25 = load ptr, ptr %24, align 8
  call void %25(ptr noundef nonnull align 8 dereferenceable(8) %20, i32 noundef %21, ptr noundef %22)
  br label %26

26:                                               ; preds = %16
  %27 = load i64, ptr %7, align 8
  %28 = add i64 %27, 1
  store i64 %28, ptr %7, align 8
  br label %12, !llvm.loop !11

29:                                               ; preds = %12
  ret void
}